; Function Attrs: mustprogress uwtable
define void @_ZN2cv4gapi8parseSSDERKNS_4GMatERKNS_7GOpaqueINS_5Size_IiEEEEfbb(ptr dead_on_unwind noalias writable sret(%"class.cv::GArray.5") align 8 %0, ptr noundef nonnull readonly align 8 captures(none) dereferenceable(16) %1, ptr noundef nonnull readonly align 8 captures(none) dereferenceable(32) %2, float noundef %3, i1 noundef zeroext %4, i1 noundef zeroext %5) local_unnamed_addr #3 personality ptr @__gxx_personality_v0 {
  %7 = alloca %"class.cv::GMat", align 8
  %8 = alloca %"class.cv::GOpaque", align 8
  %9 = load ptr, ptr %1, align 8
  store ptr %9, ptr %7, align 8
  %10 = getelementptr inbounds nuw i8, ptr %7, i64 8
  %11 = getelementptr inbounds nuw i8, ptr %1, i64 8
  %12 = load ptr, ptr %11, align 8
  store ptr %12, ptr %10, align 8
  %.not.i.i.i.i = icmp eq ptr %12, null
  br i1 %.not.i.i.i.i, label %_ZN2cv4GMatC2ERKS0_.exit, label %13

13:                                               ; preds = %6
  %14 = getelementptr inbounds nuw i8, ptr %12, i64 8
  %15 = load i8, ptr @__libc_single_threaded, align 1
  %.not.i.i.i.i.i = icmp eq i8 %15, 0
  br i1 %.not.i.i.i.i.i, label %19, label %16

16:                                               ; preds = %13
  %17 = load i32, ptr %14, align 4
  %18 = add nsw i32 %17, 1
  store i32 %18, ptr %14, align 4
  br label %_ZN2cv4GMatC2ERKS0_.exit

19:                                               ; preds = %13
  %20 = atomicrmw volatile add ptr %14, i32 1 acq_rel, align 4
  br label %_ZN2cv4GMatC2ERKS0_.exit

_ZN2cv4GMatC2ERKS0_.exit:                         ; preds = %6, %16, %19
  %21 = load ptr, ptr %2, align 8
  store ptr %21, ptr %8, align 8
  %22 = getelementptr inbounds nuw i8, ptr %8, i64 8
  %23 = getelementptr inbounds nuw i8, ptr %2, i64 8
  %24 = load ptr, ptr %23, align 8
  store ptr %24, ptr %22, align 8
  %.not.i.i.i.i.i6 = icmp eq ptr %24, null
  br i1 %.not.i.i.i.i.i6, label %_ZNSt10shared_ptrIN2cv7GOriginEEC2ERKS2_.exit.i.i, label %25

25:                                               ; preds = %_ZN2cv4GMatC2ERKS0_.exit
  %26 = getelementptr inbounds nuw i8, ptr %24, i64 8
  %27 = load i8, ptr @__libc_single_threaded, align 1
  %.not.i.i.i.i.i.i = icmp eq i8 %27, 0
  br i1 %.not.i.i.i.i.i.i, label %31, label %28

28:                                               ; preds = %25
  %29 = load i32, ptr %26, align 4
  %30 = add nsw i32 %29, 1
  store i32 %30, ptr %26, align 4
  br label %_ZNSt10shared_ptrIN2cv7GOriginEEC2ERKS2_.exit.i.i

31:                                               ; preds = %25
  %32 = atomicrmw volatile add ptr %26, i32 1 acq_rel, align 4
  br label %_ZNSt10shared_ptrIN2cv7GOriginEEC2ERKS2_.exit.i.i

_ZNSt10shared_ptrIN2cv7GOriginEEC2ERKS2_.exit.i.i: ; preds = %31, %28, %_ZN2cv4GMatC2ERKS0_.exit
  %33 = getelementptr inbounds nuw i8, ptr %8, i64 16
  %34 = getelementptr inbounds nuw i8, ptr %2, i64 16
  %35 = load ptr, ptr %34, align 8
  store ptr %35, ptr %33, align 8
  %36 = getelementptr inbounds nuw i8, ptr %8, i64 24
  %37 = getelementptr inbounds nuw i8, ptr %2, i64 24
  %38 = load ptr, ptr %37, align 8
  store ptr %38, ptr %36, align 8
  %.not.i.i.i3.i.i = icmp eq ptr %38, null
  br i1 %.not.i.i.i3.i.i, label %_ZN2cv7GOpaqueINS_5Size_IiEEEC2ERKS3_.exit, label %39

39:                                               ; preds = %_ZNSt10shared_ptrIN2cv7GOriginEEC2ERKS2_.exit.i.i
  %40 = getelementptr inbounds nuw i8, ptr %38, i64 8
  %41 = load i8, ptr @__libc_single_threaded, align 1
  %.not.i.i.i.i4.i.i = icmp eq i8 %41, 0
  br i1 %.not.i.i.i.i4.i.i, label %45, label %42

42:                                               ; preds = %39
  %43 = load i32, ptr %40, align 4
  %44 = add nsw i32 %43, 1
  store i32 %44, ptr %40, align 4
  br label %_ZN2cv7GOpaqueINS_5Size_IiEEEC2ERKS3_.exit

45:                                               ; preds = %39
  %46 = atomicrmw volatile add ptr %40, i32 1 acq_rel, align 4
  br label %_ZN2cv7GOpaqueINS_5Size_IiEEEC2ERKS3_.exit

_ZN2cv7GOpaqueINS_5Size_IiEEEC2ERKS3_.exit:       ; preds = %_ZNSt10shared_ptrIN2cv7GOriginEEC2ERKS2_.exit.i.i, %42, %45
  invoke void @_ZN2cv11GKernelTypeINS_4gapi2nn7parsers9GParseSSDESt8functionIFNS_6GArrayINS_5Rect_IiEEEENS_4GMatENS_7GOpaqueINS_5Size_IiEEEEfbbEEE2onESA_SE_fbb(ptr dead_on_unwind writable sret(%"class.cv::GArray.5") align 8 %0, ptr noundef nonnull %7, ptr noundef nonnull %8, float noundef %3, i1 noundef zeroext %4, i1 noundef zeroext %5)
          to label %47 unwind label %83

47:                                               ; preds = %_ZN2cv7GOpaqueINS_5Size_IiEEEC2ERKS3_.exit
  call void @_ZN2cv6detail8GOpaqueUD2Ev(ptr noundef nonnull align 8 dereferenceable(32) %8) #18
  %48 = load ptr, ptr %10, align 8
  %.not.i.i.i.i7 = icmp eq ptr %48, null
  br i1 %.not.i.i.i.i7, label %_ZN2cv4GMatD2Ev.exit, label %49

49:                                               ; preds = %47
  %50 = getelementptr inbounds nuw i8, ptr %48, i64 8
  %51 = load atomic i64, ptr %50 acquire, align 8
  %52 = icmp eq i64 %51, 4294967297
  %53 = trunc i64 %51 to i32
  br i1 %52, label %54, label %59

54:                                               ; preds = %49
  store i32 0, ptr %50, align 8
  %55 = getelementptr inbounds nuw i8, ptr %48, i64 12
  store i32 0, ptr %55, align 4
  %56 = load ptr, ptr %48, align 8
  %57 = getelementptr inbounds nuw i8, ptr %56, i64 16
  %58 = load ptr, ptr %57, align 8
  call void %58(ptr noundef nonnull align 8 dereferenceable(16) %48) #18
  br label %_ZNSt16_Sp_counted_baseILN9__gnu_cxx12_Lock_policyE2EE24_M_release_last_use_coldEv.exit.sink.split.i.i.i.i.i

59:                                               ; preds = %49
  %60 = load i8, ptr @__libc_single_threaded, align 1
  %.not.i.i.i.i.i8 = icmp eq i8 %60, 0
  br i1 %.not.i.i.i.i.i8, label %63, label %61

61:                                               ; preds = %59
  %62 = add nsw i32 %53, -1
  store i32 %62, ptr %50, align 4
  br label %65

63:                                               ; preds = %59
  %64 = atomicrmw volatile add ptr %50, i32 -1 acq_rel, align 4
  br label %65

65:                                               ; preds = %63, %61
  %.0.i.i.i.i.i = phi i32 [ %53, %61 ], [ %64, %63 ]
  %66 = icmp eq i32 %.0.i.i.i.i.i, 1
  br i1 %66, label %67, label %_ZN2cv4GMatD2Ev.exit

67:                                               ; preds = %65
  %68 = load ptr, ptr %48, align 8
  %69 = getelementptr inbounds nuw i8, ptr %68, i64 16
  %70 = load ptr, ptr %69, align 8
  call void %70(ptr noundef nonnull align 8 dereferenceable(16) %48) #18
  %71 = getelementptr inbounds nuw i8, ptr %48, i64 12
  %72 = load i8, ptr @__libc_single_threaded, align 1
  %.not.i.i.i.i.i.i.i = icmp eq i8 %72, 0
  br i1 %.not.i.i.i.i.i.i.i, label %76, label %73

73:                                               ; preds = %67
  %74 = load i32, ptr %71, align 4
  %75 = add nsw i32 %74, -1
  store i32 %75, ptr %71, align 4
  br label %78

76:                                               ; preds = %67
  %77 = atomicrmw volatile add ptr %71, i32 -1 acq_rel, align 4
  br label %78

78:                                               ; preds = %76, %73
  %.0.i.i.i.i.i.i.i = phi i32 [ %74, %73 ], [ %77, %76 ]
  %79 = icmp eq i32 %.0.i.i.i.i.i.i.i, 1
  br i1 %79, label %_ZNSt16_Sp_counted_baseILN9__gnu_cxx12_Lock_policyE2EE24_M_release_last_use_coldEv.exit.sink.split.i.i.i.i.i, label %_ZN2cv4GMatD2Ev.exit

_ZNSt16_Sp_counted_baseILN9__gnu_cxx12_Lock_policyE2EE24_M_release_last_use_coldEv.exit.sink.split.i.i.i.i.i: ; preds = %78, %54
  %80 = load ptr, ptr %48, align 8
  %81 = getelementptr inbounds nuw i8, ptr %80, i64 24
  %82 = load ptr, ptr %81, align 8
  call void %82(ptr noundef nonnull align 8 dereferenceable(16) %48) #18
  br label %_ZN2cv4GMatD2Ev.exit

_ZN2cv4GMatD2Ev.exit:                             ; preds = %47, %65, %78, %_ZNSt16_Sp_counted_baseILN9__gnu_cxx12_Lock_policyE2EE24_M_release_last_use_coldEv.exit.sink.split.i.i.i.i.i
  ret void

83:                                               ; preds = %_ZN2cv7GOpaqueINS_5Size_IiEEEC2ERKS3_.exit
  %84 = landingpad { ptr, i32 }
          cleanup
  call void @_ZN2cv6detail8GOpaqueUD2Ev(ptr noundef nonnull align 8 dereferenceable(32) %8) #18
  call void @_ZN2cv4GMatD2Ev(ptr noundef nonnull align 8 dereferenceable(16) %7) #18
  resume { ptr, i32 } %84
}